target datalayout = "e-m:e-p270:32:32-p271:32:32-p272:64:64-i64:64-i128:128-f80:128-n8:16:32:64-S128"
target triple = "x86_64-pc-linux-gnu"

%struct.yy_buffer_state = type { ptr, ptr, ptr, i32, i32, i32, i32, i32, i32, i32, i32, i32 }

@.str.6 = private unnamed_addr constant [42 x i8] c"out of dynamic memory in yy_scan_buffer()\00", align 1

; Function Attrs: nounwind uwtable
define dso_local ptr @replication_yyalloc(i64 noundef %0, ptr noundef %1) #0 {
  %3 = alloca i64, align 8
  %4 = alloca ptr, align 8
  store i64 %0, ptr %3, align 8
  store ptr %1, ptr %4, align 8
  %5 = load i64, ptr %3, align 8
  %6 = call ptr @palloc(i64 noundef %5)
  ret ptr %6
}

; Function Attrs: nounwind uwtable
define dso_local ptr @replication_yy_scan_buffer(ptr noundef %0, i64 noundef %1, ptr noundef %2) #0 {
  %4 = alloca ptr, align 8
  %5 = alloca ptr, align 8
  %6 = alloca i64, align 8
  %7 = alloca ptr, align 8
  %8 = alloca ptr, align 8
  %9 = alloca i32, align 4
  store ptr %0, ptr %5, align 8
  store i64 %1, ptr %6, align 8
  store ptr %2, ptr %7, align 8
  call void @llvm.lifetime.start.p0(i64 8, ptr %8) #10
  %10 = load i64, ptr %6, align 8
  %11 = icmp ult i64 %10, 2
  br i1 %11, label %28, label %12

12:                                               ; preds = %3
  %13 = load ptr, ptr %5, align 8
  %14 = load i64, ptr %6, align 8
  %15 = sub i64 %14, 2
  %16 = getelementptr inbounds nuw i8, ptr %13, i64 %15
  %17 = load i8, ptr %16, align 1
  %18 = sext i8 %17 to i32
  %19 = icmp ne i32 %18, 0
  br i1 %19, label %28, label %20

20:                                               ; preds = %12
  %21 = load ptr, ptr %5, align 8
  %22 = load i64, ptr %6, align 8
  %23 = sub i64 %22, 1
  %24 = getelementptr inbounds nuw i8, ptr %21, i64 %23
  %25 = load i8, ptr %24, align 1
  %26 = sext i8 %25 to i32
  %27 = icmp ne i32 %26, 0
  br i1 %27, label %28, label %29

28:                                               ; preds = %20, %12, %3
  store ptr null, ptr %4, align 8
  store i32 1, ptr %9, align 4
  br label %67

29:                                               ; preds = %20
  %30 = load ptr, ptr %7, align 8
  %31 = call ptr @replication_yyalloc(i64 noundef 64, ptr noundef %30)
  store ptr %31, ptr %8, align 8
  %32 = load ptr, ptr %8, align 8
  %33 = icmp ne ptr %32, null
  br i1 %33, label %36, label %34

34:                                               ; preds = %29
  %35 = load ptr, ptr %7, align 8
  call void @yy_fatal_error(ptr noundef @.str.6, ptr noundef %35) #11
  unreachable

36:                                               ; preds = %29
  %37 = load i64, ptr %6, align 8
  %38 = sub i64 %37, 2
  %39 = trunc i64 %38 to i32
  %40 = load ptr, ptr %8, align 8
  %41 = getelementptr inbounds nuw %struct.yy_buffer_state, ptr %40, i32 0, i32 3
  store i32 %39, ptr %41, align 8
  %42 = load ptr, ptr %5, align 8
  %43 = load ptr, ptr %8, align 8
  %44 = getelementptr inbounds nuw %struct.yy_buffer_state, ptr %43, i32 0, i32 1
  store ptr %42, ptr %44, align 8
  %45 = load ptr, ptr %8, align 8
  %46 = getelementptr inbounds nuw %struct.yy_buffer_state, ptr %45, i32 0, i32 2
  store ptr %42, ptr %46, align 8
  %47 = load ptr, ptr %8, align 8
  %48 = getelementptr inbounds nuw %struct.yy_buffer_state, ptr %47, i32 0, i32 5
  store i32 0, ptr %48, align 8
  %49 = load ptr, ptr %8, align 8
  %50 = getelementptr inbounds nuw %struct.yy_buffer_state, ptr %49, i32 0, i32 0
  store ptr null, ptr %50, align 8
  %51 = load ptr, ptr %8, align 8
  %52 = getelementptr inbounds nuw %struct.yy_buffer_state, ptr %51, i32 0, i32 3
  %53 = load i32, ptr %52, align 8
  %54 = load ptr, ptr %8, align 8
  %55 = getelementptr inbounds nuw %struct.yy_buffer_state, ptr %54, i32 0, i32 4
  store i32 %53, ptr %55, align 4
  %56 = load ptr, ptr %8, align 8
  %57 = getelementptr inbounds nuw %struct.yy_buffer_state, ptr %56, i32 0, i32 6
  store i32 0, ptr %57, align 4
  %58 = load ptr, ptr %8, align 8
  %59 = getelementptr inbounds nuw %struct.yy_buffer_state, ptr %58, i32 0, i32 7
  store i32 1, ptr %59, align 8
  %60 = load ptr, ptr %8, align 8
  %61 = getelementptr inbounds nuw %struct.yy_buffer_state, ptr %60, i32 0, i32 10
  store i32 0, ptr %61, align 4
  %62 = load ptr, ptr %8, align 8
  %63 = getelementptr inbounds nuw %struct.yy_buffer_state, ptr %62, i32 0, i32 11
  store i32 0, ptr %63, align 8
  %64 = load ptr, ptr %8, align 8
  %65 = load ptr, ptr %7, align 8
  call void @replication_yy_switch_to_buffer(ptr noundef %64, ptr noundef %65)
  %66 = load ptr, ptr %8, align 8
  store ptr %66, ptr %4, align 8
  store i32 1, ptr %9, align 4
  br label %67

67:                                               ; preds = %36, %28
  call void @llvm.lifetime.end.p0(i64 8, ptr %8) #10
  %68 = load ptr, ptr %4, align 8
  ret ptr %68
}